; Function Attrs: nounwind uwtable
define internal void @fig_polyline(ptr noundef %0, ptr noundef readonly captures(none) %1, i64 noundef %2) #0 {
fig_line_style.exit:
  %3 = getelementptr inbounds nuw i8, ptr %0, i64 32
  %4 = load ptr, ptr %3, align 8, !tbaa !3
  %5 = getelementptr inbounds nuw i8, ptr %4, i64 176
  %6 = load double, ptr %5, align 8, !tbaa !59
  %7 = tail call double @llvm.round.f64(double %6)
  %8 = getelementptr inbounds nuw i8, ptr %4, i64 32
  %9 = load i32, ptr %8, align 8, !tbaa !35
  %10 = load i32, ptr @Depth, align 4, !tbaa !38
  %11 = getelementptr i8, ptr %4, i64 168
  %.val = load i32, ptr %11, align 8, !tbaa !63
  %.val.off = add i32 %.val, -1
  %switch = icmp ult i32 %.val.off, 2
  %.sink1.i = select i1 %switch, i32 %.val, i32 0
  %.sink.i = select i1 %switch, double 1.000000e+01, double 0.000000e+00
  tail call void (ptr, ptr, ...) @gvprintf(ptr noundef nonnull %0, ptr noundef nonnull @.str.30, i32 noundef 2, i32 noundef 1, i32 noundef %.sink1.i, double noundef %7, i32 noundef %9, i32 noundef 0, i32 noundef %10, i32 noundef 0, i32 noundef 0, double noundef %.sink.i, i32 noundef 0, i32 noundef 0, i32 noundef 0, i32 noundef 0, i32 noundef 0, i64 noundef %2) #18
  %.not13.i = icmp eq i64 %2, 0
  br i1 %.not13.i, label %figptarray.exit, label %.lr.ph.i

.lr.ph.i:                                         ; preds = %fig_line_style.exit, %.lr.ph.i
  %.012.i = phi i64 [ %16, %.lr.ph.i ], [ 0, %fig_line_style.exit ]
  %12 = getelementptr inbounds nuw %struct.pointf_s, ptr %1, i64 %.012.i
  %13 = load double, ptr %12, align 8, !tbaa !64
  %14 = getelementptr inbounds nuw i8, ptr %12, i64 8
  %15 = load double, ptr %14, align 8, !tbaa !65
  tail call void (ptr, ptr, ...) @gvprintf(ptr noundef nonnull %0, ptr noundef nonnull @.str.31, double noundef %13, double noundef %15) #18
  %16 = add nuw i64 %.012.i, 1
  %exitcond.not.i = icmp eq i64 %16, %2
  br i1 %exitcond.not.i, label %figptarray.exit, label %.lr.ph.i, !llvm.loop !66

figptarray.exit:                                  ; preds = %.lr.ph.i, %fig_line_style.exit
  %17 = tail call i32 @gvputs(ptr noundef nonnull %0, ptr noundef nonnull @.str.32) #18
  ret void
}